(lp0
I0
aF0.01
aF0.02
aF0.03
aF0.04
aF0.05
aF0.060000000000000005
aF0.07
aF0.08
aF0.09
aF0.09999999999999999
aF0.10999999999999999
aF0.11999999999999998
aF0.12999999999999998
aF0.13999999999999999
aF0.15
aF0.16
aF0.17
aF0.18000000000000002
aF0.19000000000000003
aF0.20000000000000004
aF0.21000000000000005
aF0.22000000000000006
aF0.23000000000000007
aF0.24000000000000007
aF0.25000000000000006
aF0.26000000000000006
aF0.2700000000000001
aF0.2800000000000001
aF0.2900000000000001
aF0.3000000000000001
aF0.3100000000000001
aF0.3200000000000001
aF0.3300000000000001
aF0.34000000000000014
aF0.35000000000000014
aF0.36000000000000015
aF0.37000000000000016
aF0.38000000000000017
aF0.3900000000000002
aF0.4000000000000002
aF0.4100000000000002
aF0.4200000000000002
aF0.4300000000000002
aF0.4400000000000002
aF0.45000000000000023
aF0.46000000000000024
aF0.47000000000000025
aF0.48000000000000026
aF0.49000000000000027
aF0.5000000000000002
aF0.5100000000000002
aF0.5200000000000002
aF0.5300000000000002
aF0.5400000000000003
aF0.5500000000000003
aF0.5600000000000003
aF0.5700000000000003
aF0.5800000000000003
aF0.5900000000000003
aF0.6000000000000003
aF0.6100000000000003
aF0.6200000000000003
aF0.6300000000000003
aF0.6400000000000003
aF0.6500000000000004
aF0.6600000000000004
aF0.6700000000000004
aF0.6800000000000004
aF0.6900000000000004
aF0.7000000000000004
aF0.7100000000000004
aF0.7200000000000004
aF0.7300000000000004
aF0.7400000000000004
aF0.7500000000000004
aF0.7600000000000005
aF0.7700000000000005
aF0.7800000000000005
aF0.7900000000000005
aF0.8000000000000005
aF0.8100000000000005
aF0.8200000000000005
aF0.8300000000000005
aF0.8400000000000005
aF0.8500000000000005
aF0.8600000000000005
aF0.8700000000000006
aF0.8800000000000006
aF0.8900000000000006
aF0.9000000000000006
aF0.9100000000000006
aF0.9200000000000006
aF0.9300000000000006
aF0.9400000000000006
aF0.9500000000000006
aF0.9600000000000006
aF0.9700000000000006
aF0.9800000000000006
aF0.9900000000000007
a.(lp0
F1000.0
aF995.0
aF990.5225
aF986.508655199375
aF982.9070447649876
aF979.6725881527973
aF976.7656460295129
aF974.1512696759714
aF971.7985706740579
aF969.6801886916793
aF967.7718397832757
aF966.0519311749363
aF964.5012312638728
aF963.102585722988
aF961.8406723040413
aF960.7017882830962
aF959.6736655689565
aF958.7453093593516
aF957.9068569266341
aF957.149453679958
aF956.4651441115698
aF955.8467756121323
aF955.2879134504739
aF954.7827654698128
aF954.3261152656266
aF953.913262788063
aF953.5399714606322
aF953.2024210320778
aF952.8971654839838
aF952.6210954062212
aF952.3714043285173
aF952.1455585614592
aF951.9412701559665
aF951.7564726381679
aF951.5892992179291
aF951.4380632050254
aF951.3012403979699
aF951.1774532375055
aF951.0654565403298
aF950.9641246492346
aF950.8724398539233
aF950.7894819526707
aF950.7144188389916
aF950.6464980098597
aF950.5850389029554
aF950.5294259801228
aF950.4791024828243
aF950.433564793037
aF950.3923573398555
aF950.355067998141
aF950.3213239309893
aF950.2907878326384
aF950.2631545327814
aF950.2381479271363
aF950.2155182026148
aF950.1950393285568
aF950.17650678831
aF950.159735527956
aF950.1445581012563
aF950.1308229919325
aF950.1183930962334
aF950.1071443503987
aF950.0969644891196
aF950.0877519224421
aF950.07941471977
aF950.0718696907221
aF950.0650415535782
aF950.0588621829479
aF950.0532699290922
aF950.0482090020598
aF950.0436289144534
aF950.0394839772321
aF950.0357328434966
aF950.0323380956808
aF950.0292658720158
aF950.0264855285252
aF950.023969333167
aF950.0216921890632
aF950.0196313840471
aF950.0177663640235
aF950.0160785278769
aF950.0145510418766
aF950.0131686717251
aF950.0119176305699
aF950.0107854414628
aF950.0097608128913
aF950.0088335261393
aF950.0079943333529
aF950.0072348652935
aF950.0065475478563
aF950.0059255265229
aF950.0053625979921
aF950.0048531483071
aF950.0043920968626
aF950.0039748457316
aF950.0035972338071
aF950.0032554953015
aF950.002946222188
aF950.0026663302122
aF950.0024130281311
a.